(dp0
S'alc'
p1
S'chemical/x-alchemy'
p2
sS'gf'
p3
S'application/x-tex-gf'
p4
sS'mp4'
p5
S'video/mp4'
p6
sS'mp2'
p7
S'audio/mpeg'
p8
sS'mp3'
p9
g8
sS'nwc'
p10
S'application/x-nwc'
p11
sS'sct'
p12
S'text/scriptlet'
p13
sS'ros'
p14
S'chemical/x-rosdal'
p15
sS'mng'
p16
S'video/x-mng'
p17
sS'wmz'
p18
S'application/x-ms-wmz'
p19
sS'wmx'
p20
S'video/x-ms-wmx'
p21
sS'gcd'
p22
S'text/x-pcs-gcd'
p23
sS'tr'
p24
S'application/x-troff'
p25
sS'ts'
p26
S'text/texmacs'
p27
sS'tm'
p28
g27
sS'tk'
p29
S'text/x-tcl'
p30
sS'wml'
p31
S'text/vnd.wap.wml'
p32
sS'wma'
p33
S'audio/x-ms-wma'
p34
sS'fchk'
p35
S'chemical/x-gaussian-checkpoint'
p36
sS'wmd'
p37
S'application/x-ms-wmd'
p38
sS'mpg'
p39
S'video/mpeg'
p40
sS'cascii'
p41
S'chemical/x-cactvs-binary'
p42
sS'mpe'
p43
g40
sS'smi'
p44
S'application/smil'
p45
sS'mpv'
p46
S'video/x-matroska'
p47
sS'wsc'
p48
g13
sS'cml'
p49
S'chemical/x-cml'
p50
sS'dif'
p51
S'video/dv'
p52
sS'p'
p53
S'text/x-pascal'
p54
sS'pbm'
p55
S'image/x-portable-bitmap'
p56
sS'div'
p57
S'video/x-divx'
p58
sS'dir'
p59
S'application/x-director'
p60
sS'htc'
p61
S'text/x-component'
p62
sS'hta'
p63
S'application/hta'
p64
sS'odp'
p65
S'application/vnd.oasis.opendocument.presentation'
p66
sS'htm'
p67
S'text/html'
p68
sS'nbp'
p69
S'application/mathematica'
p70
sS'odt'
p71
S'application/vnd.oasis.opendocument.text'
p72
sS'tex'
p73
S'text/x-tex'
p74
sS'odi'
p75
S'application/vnd.oasis.opendocument.image'
p76
sS'odm'
p77
S'application/vnd.oasis.opendocument.text-master'
p78
sS'oda'
p79
S'application/oda'
p80
sS'odb'
p81
S'application/vnd.oasis.opendocument.database'
p82
sS'odc'
p83
S'application/vnd.oasis.opendocument.chart'
p84
sS'odf'
p85
S'application/vnd.oasis.opendocument.formula'
p86
sS'odg'
p87
S'application/vnd.oasis.opendocument.graphics'
p88
sS'gl'
p89
S'video/gl'
p90
sS'rtx'
p91
S'text/richtext'
p92
sS'abw'
p93
S'application/x-abiword'
p94
sS'oza'
p95
S'application/x-oz-application'
p96
sS'asc'
p97
S'text/plain'
p98
sS'm3u'
p99
S'audio/x-mpegurl'
p100
sS'ctx'
p101
S'chemical/x-ctx'
p102
sS'cbin'
p103
g42
sS'rdf'
p104
S'application/rdf+xml'
p105
sS'boo'
p106
S'text/x-boo'
p107
sS'm3g'
p108
S'application/m3g'
p109
sS'maker'
p110
S'application/x-maker'
p111
sS'wmv'
p112
S'video/x-ms-wmv'
p113
sS'sgl'
p114
S'application/vnd.stardivision.writer-global'
p115
sS'brf'
p116
g98
sS'txt'
p117
g98
sS'wbmp'
p118
S'image/vnd.wap.wbmp'
p119
sS'sgf'
p120
S'application/x-go-sgf'
p121
sS'zip'
p122
S'application/zip'
p123
sS'epsf'
p124
S'application/postscript'
p125
sS'chm'
p126
S'chemical/x-chemdraw'
p127
sS'msi'
p128
S'application/x-msi'
p129
sS'msh'
p130
S'model/mesh'
p131
sS'jmz'
p132
S'application/x-jmol'
p133
sS'wvx'
p134
S'video/x-ms-wvx'
p135
sS'pfb'
p136
S'application/x-font'
p137
sS'flv'
p138
S'video/x-flv'
p139
sS'flac'
p140
S'audio/flac'
p141
sS'wbxml'
p142
S'application/vnd.wap.wbxml'
p143
sS'iii'
p144
S'application/x-iphone'
p145
sS'me'
p146
S'application/x-troff-me'
p147
sS'mm'
p148
S'application/x-freemind'
p149
sS'uls'
p150
S'text/iuls'
p151
sS'cap'
p152
S'application/cap'
p153
sS'cat'
p154
S'application/vnd.ms-pki.seccat'
p155
sS'fli'
p156
S'video/fli'
p157
sS'jdx'
p158
S'chemical/x-jcamp-dx'
p159
sS'ms'
p160
S'application/x-troff-ms'
p161
sS'xht'
p162
S'application/xhtml+xml'
p163
sS'cac'
p164
S'chemical/x-cache'
p165
sS'cab'
p166
S'application/x-cab'
p167
sS'deb'
p168
S'application/x-debian-package'
p169
sS'eps2'
p170
g125
sS'eps3'
p171
g125
sS'spx'
p172
S'audio/ogg'
p173
sS'ltx'
p174
g74
sS'xcf'
p175
S'application/x-xcf'
p176
sS'tar'
p177
S'application/x-tar'
p178
sS'dxr'
p179
g60
sS'taz'
p180
S'application/x-gtar'
p181
sS'spl'
p182
S'application/x-futuresplash'
p183
sS'spc'
p184
S'chemical/x-galactic-spc'
p185
sS'mpc'
p186
S'chemical/x-mopac-input'
p187
sS'csm'
p188
S'chemical/x-csml'
p189
sS'chrt'
p190
S'application/x-kchart'
p191
sS'csh'
p192
S'text/x-csh'
p193
sS'gcg'
p194
S'chemical/x-gcg8-sequence'
p195
sS'sit'
p196
S'application/x-stuffit'
p197
sS'csf'
p198
S'chemical/x-cache-csf'
p199
sS'ent'
p200
S'chemical/x-pdb'
p201
sS'sid'
p202
S'audio/prs.sid'
p203
sS'sik'
p204
S'application/x-trash'
p205
sS'xhtml'
p206
g163
sS'csv'
p207
S'text/csv'
p208
sS'css'
p209
S'text/css'
p210
sS'sis'
p211
S'application/vnd.symbian.install'
p212
sS'snd'
p213
S'audio/basic'
p214
sS'mpega'
p215
g8
sS'fb'
p216
g111
sS'mesh'
p217
g131
sS'divx'
p218
g58
sS'fm'
p219
g111
sS'man'
p220
S'application/x-troff-man'
p221
sS'lha'
p222
S'application/x-lha'
p223
sS'gcf'
p224
S'application/x-graphing-calculator'
p225
sS'sw'
p226
S'chemical/x-swissprot'
p227
sS'sh'
p228
S'text/x-sh'
p229
sS'lhs'
p230
S'text/x-literate-haskell'
p231
sS'sd'
p232
S'chemical/x-mdl-sdfile'
p233
sS'lsf'
p234
S'video/x-la-asf'
p235
sS'vmd'
p236
S'chemical/x-vmd'
p237
sS'jpeg'
p238
S'image/jpeg'
p239
sS'jng'
p240
S'image/x-jng'
p241
sS'vms'
p242
S'chemical/x-vamas-iso14976'
p243
sS'lsx'
p244
g235
sS'pcx'
p245
S'image/pcx'
p246
sS'djv'
p247
S'image/vnd.djvu'
p248
sS'wrl'
p249
S'x-world/x-vrml'
p250
sS'qgs'
p251
S'application/x-qgis'
p252
sS'html'
p253
g68
sS'fig'
p254
S'application/x-xfig'
p255
sS'tsv'
p256
S'text/tab-separated-values'
p257
sS'pcf'
p258
g137
sS'tsp'
p259
S'application/dsptype'
p260
sS'cls'
p261
g74
sS'lzx'
p262
S'application/x-lzx'
p263
sS'mxu'
p264
S'video/vnd.mpegurl'
p265
sS'dat'
p266
S'application/x-ns-proxy-autoconfig'
p267
sS'lzh'
p268
S'application/x-lzh'
p269
sS'cer'
p270
S'chemical/x-cerius'
p271
sS'hqx'
p272
S'application/mac-binhex40'
p273
sS'kpr'
p274
S'application/x-kpresenter'
p275
sS'kpt'
p276
g275
sS'xlb'
p277
S'application/vnd.ms-excel'
p278
sS'h'
p279
S'text/x-chdr'
p280
sS'xlt'
p281
g278
sS'xls'
p282
g278
sS'atomcat'
p283
S'application/atomcat+xml'
p284
sS'mdb'
p285
S'application/msaccess'
p286
sS'gtar'
p287
g181
sS'ez'
p288
S'application/andrew-inset'
p289
sS'es'
p290
S'application/ecmascript'
p291
sS'vcd'
p292
S'application/x-cdlink'
p293
sS'vcf'
p294
S'text/x-vcard'
p295
sS'rd'
p296
S'chemical/x-mdl-rdfile'
p297
sS'vcs'
p298
S'text/x-vcalendar'
p299
sS'ra'
p300
S'audio/x-realaudio'
p301
sS'rb'
p302
S'application/x-ruby'
p303
sS'rm'
p304
S'audio/x-pn-realaudio'
p305
sS'asx'
p306
S'video/x-ms-asf'
p307
sS'gnumeric'
p308
S'application/x-gnumeric'
p309
sS'mml'
p310
S'text/mathml'
p311
sS'asf'
p312
g307
sS'mmd'
p313
S'chemical/x-macromodel-input'
p314
sS'mmf'
p315
S'application/vnd.smaf'
p316
sS'aso'
p317
S'chemical/x-ncbi-asn1-binary'
p318
sS'asn'
p319
S'chemical/x-ncbi-asn1-spec'
p320
sS'cxx'
p321
S'text/x-c++src'
p322
sS'xpm'
p323
S'image/x-xpixmap'
p324
sS'midi'
p325
S'audio/midi'
p326
sS'c3d'
p327
S'chemical/x-chem3d'
p328
sS'isp'
p329
S'application/x-internet-signup'
p330
sS'swfl'
p331
S'application/x-shockwave-flash'
p332
sS'ist'
p333
S'chemical/x-isostar'
p334
sS'mvb'
p335
S'chemical/x-mopac-vib'
p336
sS'iso'
p337
S'application/x-iso9660-image'
p338
sS'xul'
p339
S'application/vnd.mozilla.xul+xml'
p340
sS'pgn'
p341
S'application/x-chess-pgn'
p342
sS'pgm'
p343
S'image/x-portable-graymap'
p344
sS'pgp'
p345
S'application/pgp-signature'
p346
sS'mkv'
p347
S'video/mkv'
p348
sS'gpt'
p349
S'chemical/x-mopac-graph'
p350
sS'phtml'
p351
S'application/x-httpd-php'
p352
sS'ods'
p353
S'application/vnd.oasis.opendocument.spreadsheet'
p354
sS'ogx'
p355
S'application/ogg'
p356
sS'wax'
p357
S'audio/x-ms-wax'
p358
sS'ogm'
p359
S'video/ogg'
p360
sS'pnm'
p361
S'image/x-portable-anymap'
p362
sS'cmdf'
p363
S'chemical/x-cmdf'
p364
sS'oga'
p365
g173
sS'png'
p366
S'image/png'
p367
sS'rss'
p368
S'application/rss+xml'
p369
sS'std'
p370
S'application/vnd.sun.xml.draw.template'
p371
sS'b'
p372
S'chemical/x-molconn-Z'
p373
sS'stc'
p374
S'application/vnd.sun.xml.calc.template'
p375
sS'stl'
p376
S'application/vnd.ms-pki.stl'
p377
sS'ogg'
p378
g173
sS'mcif'
p379
S'chemical/x-mmcif'
p380
sS'stw'
p381
S'application/vnd.sun.xml.writer.template'
p382
sS'torrent'
p383
S'application/x-bittorrent'
p384
sS'prf'
p385
S'application/pics-rules'
p386
sS'php3p'
p387
S'application/x-httpd-php3-preprocessed'
p388
sS'ram'
p389
g305
sS'prt'
p390
S'chemical/x-ncbi-asn1-ascii'
p391
sS'rar'
p392
S'application/rar'
p393
sS'ras'
p394
S'image/x-cmu-raster'
p395
sS'anx'
p396
S'application/annodex'
p397
sS'7z'
p398
S'application/x-7z-compressed'
p399
sS'shtml'
p400
g68
sS'lin'
p401
S'application/bbolin'
p402
sS'mid'
p403
g326
sS'mif'
p404
S'application/x-mif'
p405
sS'323'
p406
S'text/h323'
p407
sS'istr'
p408
g334
sS'csml'
p409
g189
sS'ogv'
p410
g360
sS'zmt'
p411
g187
sS'kar'
p412
g326
sS'mpeg'
p413
g40
sS'sisx'
p414
S'x-epoc/x-sisx-app'
p415
sS'pyo'
p416
S'application/x-python-code'
p417
sS'fch'
p418
g36
sS'pyc'
p419
g417
sS'awb'
p420
S'audio/amr-wb'
p421
sS'cc'
p422
g322
sS'fbdoc'
p423
g111
sS'latex'
p424
S'application/x-latex'
p425
sS'exe'
p426
S'application/x-msdos-program'
p427
sS'axv'
p428
S'video/annodex'
p429
sS'doc'
p430
S'application/msword'
p431
sS'wmlsc'
p432
S'application/vnd.wap.wmlscriptc'
p433
sS'hh'
p434
S'text/x-c++hdr'
p435
sS'axa'
p436
S'audio/annodex'
p437
sS'dot'
p438
g431
sS'cdf'
p439
S'application/x-cdf'
p440
sS'rtf'
p441
S'application/rtf'
p442
sS'ctab'
p443
g42
sS'cda'
p444
g440
sS'text'
p445
g98
sS'sdc'
p446
S'application/vnd.stardivision.calc'
p447
sS'cdt'
p448
S'image/x-coreldrawtemplate'
p449
sS'texi'
p450
S'application/x-texinfo'
p451
sS'cdr'
p452
S'image/x-coreldraw'
p453
sS'cdx'
p454
S'chemical/x-cdx'
p455
sS'cdy'
p456
S'application/vnd.cinderella'
p457
sS'xml'
p458
S'application/xml'
p459
sS'ksp'
p460
S'application/x-kspread'
p461
sS'cache'
p462
g165
sS'jar'
p463
S'application/java-archive'
p464
sS'jam'
p465
S'application/x-jam'
p466
sS'jad'
p467
S'text/vnd.sun.j2me.app-descriptor'
p468
sS'ief'
p469
S'image/ief'
p470
sS'dl'
p471
S'video/dl'
p472
sS'cpio'
p473
S'application/x-cpio'
p474
sS'dx'
p475
g159
sS'dv'
p476
g52
sS'gen'
p477
S'chemical/x-genbank'
p478
sS'hin'
p479
S'chemical/x-hin'
p480
sS'silo'
p481
g131
sS'shp'
p482
g252
sS'bat'
p483
g427
sS'qt'
p484
S'video/quicktime'
p485
sS'crt'
p486
S'application/x-x509-ca-cert'
p487
sS'emb'
p488
S'chemical/x-embl-dl-nucleotide'
p489
sS'shx'
p490
g252
sS'eml'
p491
S'message/rfc822'
p492
sS'c++'
p493
g322
sS'patch'
p494
S'text/x-diff'
p495
sS'bak'
p496
g205
sS'crl'
p497
S'application/x-pkcs7-crl'
p498
sS'espi'
p499
g125
sS'art'
p500
S'image/x-jg'
p501
sS'ser'
p502
S'application/java-serialized-object'
p503
sS'frame'
p504
g111
sS'sti'
p505
S'application/vnd.sun.xml.impress.template'
p506
sS'qtl'
p507
S'application/x-quicktimeplayer'
p508
sS'movie'
p509
S'video/x-sgi-movie'
p510
sS'dll'
p511
g427
sS'wm'
p512
S'video/x-ms-wm'
p513
sS'wk'
p514
S'application/x-123'
p515
sS'js'
p516
S'application/javascript'
p517
sS'key'
p518
S'application/pgp-keys'
p519
sS'sv4crc'
p520
S'application/x-sv4crc'
p521
sS'pcap'
p522
g153
sS'wz'
p523
S'application/x-wingz'
p524
sS'vrm'
p525
g250
sS'c'
p526
S'text/x-csrc'
p527
sS'etx'
p528
S'text/x-setext'
p529
sS'sty'
p530
g74
sS'cod'
p531
S'application/vnd.rim.cod'
p532
sS'pdf'
p533
S'application/pdf'
p534
sS'com'
p535
g427
sS'pdb'
p536
g201
sS'xspf'
p537
S'application/xspf+xml'
p538
sS'roff'
p539
g25
sS'tgz'
p540
g181
sS'pot'
p541
g98
sS'tgf'
p542
S'chemical/x-mdl-tgf'
p543
sS'kwt'
p544
S'application/x-kword'
p545
sS'cxf'
p546
S'chemical/x-cxf'
p547
sS'sxd'
p548
S'application/vnd.sun.xml.draw'
p549
sS'rpm'
p550
S'application/x-redhat-package-manager'
p551
sS'cu'
p552
S'application/cu-seeme'
p553
sS'jnlp'
p554
S'application/x-java-jnlp-file'
p555
sS'ps'
p556
g125
sS'mpga'
p557
g8
sS'iges'
p558
S'model/iges'
p559
sS'py'
p560
S'text/x-python'
p561
sS'frm'
p562
g111
sS'swf'
p563
g332
sS'pk'
p564
S'application/x-tex-pk'
p565
sS'pl'
p566
S'text/x-perl'
p567
sS'pm'
p568
g567
sS'oth'
p569
S'application/vnd.oasis.opendocument.text-web'
p570
sS'mcm'
p571
S'chemical/x-macmolecule'
p572
sS'lyx'
p573
S'application/x-lyx'
p574
sS'gau'
p575
S'chemical/x-gaussian-input'
p576
sS'otg'
p577
S'application/vnd.oasis.opendocument.graphics-template'
p578
sS'gam'
p579
S'chemical/x-gamess-input'
p580
sS'gal'
p581
S'chemical/x-gaussian-log'
p582
sS'otp'
p583
S'application/vnd.oasis.opendocument.presentation-template'
p584
sS'ots'
p585
S'application/vnd.oasis.opendocument.spreadsheet-template'
p586
sS'ott'
p587
S'application/vnd.oasis.opendocument.text-template'
p588
sS'mopcrt'
p589
g187
sS'hdf'
p590
S'application/x-hdf'
p591
sS'atomsrv'
p592
S'application/atomserv+xml'
p593
sS'aif'
p594
S'audio/x-aiff'
p595
sS'~'
p596
g205
sS'svgz'
p597
S'image/svg+xml'
p598
sS'cef'
p599
g547
sS'wp5'
p600
S'application/vnd.wordperfect5.1'
p601
sS'jpe'
p602
g239
sS'jpg'
p603
g239
sS'sitx'
p604
g197
sS'avi'
p605
S'video/x-msvideo'
p606
sS'texinfo'
p607
g451
sS'shar'
p608
S'application/x-shar'
p609
sS'pas'
p610
g54
sS'pat'
p611
S'image/x-coreldrawpattern'
p612
sS'pac'
p613
g267
sS'hxx'
p614
g435
sS'3gp'
p615
S'video/3gpp'
p616
sS'kin'
p617
S'chemical/x-kinemage'
p618
sS'kil'
p619
S'application/x-killustrator'
p620
sS'wpd'
p621
S'application/vnd.wordperfect'
p622
sS'igs'
p623
g559
sS'php'
p624
g352
sS'pht'
p625
g352
sS'gamin'
p626
g580
sS'wmls'
p627
S'text/vnd.wap.wmlscript'
p628
sS'eps'
p629
g125
sS'gsf'
p630
g137
sS'wmlc'
p631
S'application/vnd.wap.wmlc'
p632
sS'gsm'
p633
S'audio/x-gsm'
p634
sS'hpp'
p635
g435
sS'aiff'
p636
g595
sS'davmount'
p637
S'application/davmount+xml'
p638
sS'aifc'
p639
g595
sS'tcl'
p640
g30
sS'bcpio'
p641
S'application/x-bcpio'
p642
sS'kwd'
p643
g545
sS'skt'
p644
S'application/x-koan'
p645
sS'skp'
p646
g645
sS'skd'
p647
g645
sS'rgb'
p648
S'image/x-rgb'
p649
sS'cub'
p650
S'chemical/x-gaussian-cube'
p651
sS'skm'
p652
g645
sS'm4a'
p653
g8
sS'bin'
p654
S'application/octet-stream'
p655
sS'embl'
p656
g489
sS'mop'
p657
g187
sS'bib'
p658
S'text/x-bibtex'
p659
sS'mov'
p660
g485
sS'psd'
p661
S'image/x-photoshop'
p662
sS'moo'
p663
S'chemical/x-mopac-out'
p664
sS'mol'
p665
S'chemical/x-mdl-molfile'
p666
sS'moc'
p667
S'text/x-moc'
p668
sS'amr'
p669
S'audio/amr'
p670
sS'ustar'
p671
S'application/x-ustar'
p672
sS'd'
p673
S'text/x-dsrc'
p674
sS't'
p675
g25
sS'xsd'
p676
g459
sS'gjf'
p677
g576
sS'vrml'
p678
g250
sS'gjc'
p679
g576
sS'xsl'
p680
g459
sS'old'
p681
g205
sS'vsd'
p682
S'application/vnd.visio'
p683
sS'diff'
p684
g495
sS'udeb'
p685
g169
sS'ico'
p686
S'image/x-icon'
p687
sS'scala'
p688
S'text/x-scala'
p689
sS'ica'
p690
S'application/x-ica'
p691
sS'kml'
p692
S'application/vnd.google-earth.kml+xml'
p693
sS'ice'
p694
S'x-conference/x-cooltalk'
p695
sS'icz'
p696
S'text/calendar'
p697
sS'ics'
p698
g697
sS'xtel'
p699
S'chemical/x-xtel'
p700
sS'kmz'
p701
S'application/vnd.google-earth.kmz'
p702
sS'pls'
p703
S'audio/x-scpls'
p704
sS'mmod'
p705
g314
sS'java'
p706
S'text/x-java'
p707
sS'dcr'
p708
g60
sS'src'
p709
S'application/x-wais-source'
p710
sS'o'
p711
S'application/x-object'
p712
sS'sd2'
p713
S'audio/x-sd2'
p714
sS'tiff'
p715
S'image/tiff'
p716
sS'xyz'
p717
S'chemical/x-xyz'
p718
sS'ppm'
p719
S'image/x-portable-pixmap'
p720
sS'pps'
p721
S'application/vnd.ms-powerpoint'
p722
sS'bsd'
p723
S'chemical/x-crossfire'
p724
sS'ppt'
p725
g722
sS'djvu'
p726
g248
sS'xpi'
p727
S'application/x-xpinstall'
p728
sS'val'
p729
g318
sS'wad'
p730
S'application/x-doom'
p731
sS'class'
p732
S'application/java-vm'
p733
sS'gif'
p734
S'image/gif'
p735
sS'smil'
p736
g45
sS'wav'
p737
S'audio/x-wav'
p738
sS'rhtml'
p739
S'application/x-httpd-eruby'
p740
sS'sdw'
p741
S'application/vnd.stardivision.writer'
p742
sS'sds'
p743
S'application/vnd.stardivision.chart'
p744
sS'hs'
p745
S'text/x-haskell'
p746
sS'sdd'
p747
S'application/vnd.stardivision.impress'
p748
sS'sdf'
p749
g233
sS'sda'
p750
S'application/vnd.stardivision.draw'
p751
sS'atom'
p752
S'application/atom+xml'
p753
sS'sv4cpio'
p754
S'application/x-sv4cpio'
p755
sS'info'
p756
S'application/x-info'
p757
sS'cif'
p758
S'chemical/x-cif'
p759
sS'dmg'
p760
S'application/x-apple-diskimage'
p761
sS'dms'
p762
S'application/x-dms'
p763
sS'svg'
p764
g598
sS'xwd'
p765
S'image/x-xwindowdump'
p766
sS'pfa'
p767
g137
sS'sxc'
p768
S'application/vnd.sun.xml.calc'
p769
sS'p7r'
p770
S'application/x-pkcs7-certreqresp'
p771
sS'sxg'
p772
S'application/vnd.sun.xml.writer.global'
p773
sS'ai'
p774
g125
sS'sxi'
p775
S'application/vnd.sun.xml.impress'
p776
sS'inp'
p777
g580
sS'sxm'
p778
S'application/vnd.sun.xml.math'
p779
sS'ins'
p780
g330
sS'cbr'
p781
S'application/x-cbr'
p782
sS'au'
p783
g214
sS'sxw'
p784
S'application/vnd.sun.xml.writer'
p785
sS'cbz'
p786
S'application/x-cbz'
p787
sS'%'
p788
g205
sS'nb'
p789
g70
sS'nc'
p790
S'application/x-netcdf'
p791
sS'book'
p792
g111
sS'php4'
p793
S'application/x-httpd-php4'
p794
sS'tif'
p795
g716
sS'php3'
p796
S'application/x-httpd-php3'
p797
sS'mol2'
p798
S'chemical/x-mol2'
p799
sS'h++'
p800
g435
sS'dvi'
p801
S'application/x-dvi'
p802
sS'pcf.Z'
p803
g137
sS'rxn'
p804
S'chemical/x-mdl-rxnfile'
p805
sS'cpa'
p806
S'chemical/x-compass'
p807
sS'bmp'
p808
S'image/x-ms-bmp'
p809
sS'xbm'
p810
S'image/x-xbitmap'
p811
sS'cpp'
p812
g322
sS'cpt'
p813
S'image/x-corelphotopaint'
p814
sS'phps'
p815
S'application/x-httpd-php-source'
p816
s.