(dp0
S'mp+'
p1
S'audio/musepack'
p2
sS'gf'
p3
S'application/x-tex-gf'
p4
sS'mp4'
p5
S'video/mp4'
p6
sS'mp2'
p7
S'audio/mpeg'
p8
sS'mp3'
p9
g8
sS'nwc'
p10
S'application/x-nwc'
p11
sS'sct'
p12
S'text/scriptlet'
p13
sS'ros'
p14
S'chemical/x-rosdal'
p15
sS'mng'
p16
S'video/x-mng'
p17
sS'wmz'
p18
S'application/x-ms-wmz'
p19
sS'wmx'
p20
S'video/x-ms-wmx'
p21
sS'gcd'
p22
S'text/x-pcs-gcd'
p23
sS'tr'
p24
S'application/x-troff'
p25
sS'ts'
p26
S'text/texmacs'
p27
sS'tm'
p28
g27
sS'tk'
p29
S'text/x-tcl'
p30
sS'wml'
p31
S'text/vnd.wap.wml'
p32
sS'wma'
p33
S'audio/x-ms-wma'
p34
sS'fchk'
p35
S'chemical/x-gaussian-checkpoint'
p36
sS'wmd'
p37
S'application/x-ms-wmd'
p38
sS'mpg'
p39
S'video/mpeg'
p40
sS'cascii'
p41
S'chemical/x-cactvs-binary'
p42
sS'mpe'
p43
g40
sS'smi'
p44
S'application/smil'
p45
sS'alc'
p46
S'chemical/x-alchemy'
p47
sS'mpv'
p48
S'video/x-matroska'
p49
sS'mpp'
p50
g2
sS'wsc'
p51
g13
sS'cml'
p52
S'chemical/x-cml'
p53
sS'dif'
p54
S'video/dv'
p55
sS'p'
p56
S'text/x-pascal'
p57
sS'pbm'
p58
S'image/x-portable-bitmap'
p59
sS'div'
p60
S'video/x-divx'
p61
sS'dir'
p62
S'application/x-director'
p63
sS'htc'
p64
S'text/x-component'
p65
sS'hta'
p66
S'application/hta'
p67
sS'odp'
p68
S'application/vnd.oasis.opendocument.presentation'
p69
sS'htm'
p70
S'text/html'
p71
sS'nbp'
p72
S'application/mathematica'
p73
sS'odt'
p74
S'application/vnd.oasis.opendocument.text'
p75
sS'tex'
p76
S'text/x-tex'
p77
sS'odi'
p78
S'application/vnd.oasis.opendocument.image'
p79
sS'odm'
p80
S'application/vnd.oasis.opendocument.text-master'
p81
sS'oda'
p82
S'application/oda'
p83
sS'odb'
p84
S'application/vnd.oasis.opendocument.database'
p85
sS'odc'
p86
S'application/vnd.oasis.opendocument.chart'
p87
sS'odf'
p88
S'application/vnd.oasis.opendocument.formula'
p89
sS'odg'
p90
S'application/vnd.oasis.opendocument.graphics'
p91
sS'gl'
p92
S'video/gl'
p93
sS'rtx'
p94
S'text/richtext'
p95
sS'abw'
p96
S'application/x-abiword'
p97
sS'oza'
p98
S'application/x-oz-application'
p99
sS'asc'
p100
S'text/plain'
p101
sS'm3u'
p102
S'audio/x-mpegurl'
p103
sS'ctx'
p104
S'chemical/x-ctx'
p105
sS'cbin'
p106
g42
sS'rdf'
p107
S'application/rdf+xml'
p108
sS'boo'
p109
S'text/x-boo'
p110
sS'm3g'
p111
S'application/m3g'
p112
sS'maker'
p113
S'application/x-maker'
p114
sS'wmv'
p115
S'video/x-ms-wmv'
p116
sS'sgl'
p117
S'application/vnd.stardivision.writer-global'
p118
sS'brf'
p119
g101
sS'txt'
p120
g101
sS'wbmp'
p121
S'image/vnd.wap.wbmp'
p122
sS'sgf'
p123
S'application/x-go-sgf'
p124
sS'zip'
p125
S'application/zip'
p126
sS'epsf'
p127
S'application/postscript'
p128
sS'chm'
p129
S'chemical/x-chemdraw'
p130
sS'msi'
p131
S'application/x-msi'
p132
sS'msh'
p133
S'model/mesh'
p134
sS'jmz'
p135
S'application/x-jmol'
p136
sS'wvx'
p137
S'video/x-ms-wvx'
p138
sS'pfb'
p139
S'application/x-font'
p140
sS'flv'
p141
S'video/x-flv'
p142
sS'flac'
p143
S'audio/flac'
p144
sS'wbxml'
p145
S'application/vnd.wap.wbxml'
p146
sS'iii'
p147
S'application/x-iphone'
p148
sS'me'
p149
S'application/x-troff-me'
p150
sS'mm'
p151
S'application/x-freemind'
p152
sS'uls'
p153
S'text/iuls'
p154
sS'cap'
p155
S'application/cap'
p156
sS'cat'
p157
S'application/vnd.ms-pki.seccat'
p158
sS'fli'
p159
S'video/fli'
p160
sS'jdx'
p161
S'chemical/x-jcamp-dx'
p162
sS'ms'
p163
S'application/x-troff-ms'
p164
sS'xht'
p165
S'application/xhtml+xml'
p166
sS'cac'
p167
S'chemical/x-cache'
p168
sS'cab'
p169
S'application/x-cab'
p170
sS'deb'
p171
S'application/x-debian-package'
p172
sS'eps2'
p173
g128
sS'eps3'
p174
g128
sS'spx'
p175
S'audio/ogg'
p176
sS'ltx'
p177
g77
sS'xcf'
p178
S'application/x-xcf'
p179
sS'tar'
p180
S'application/x-tar'
p181
sS'dxr'
p182
g63
sS'taz'
p183
S'application/x-gtar'
p184
sS'spl'
p185
S'application/x-futuresplash'
p186
sS'spc'
p187
S'chemical/x-galactic-spc'
p188
sS'mpc'
p189
g2
sS'csm'
p190
S'chemical/x-csml'
p191
sS'chrt'
p192
S'application/x-kchart'
p193
sS'csh'
p194
S'text/x-csh'
p195
sS'gcg'
p196
S'chemical/x-gcg8-sequence'
p197
sS'sit'
p198
S'application/x-stuffit'
p199
sS'csf'
p200
S'chemical/x-cache-csf'
p201
sS'ent'
p202
S'chemical/x-pdb'
p203
sS'sid'
p204
S'audio/prs.sid'
p205
sS'sik'
p206
S'application/x-trash'
p207
sS'xhtml'
p208
g166
sS'csv'
p209
S'text/csv'
p210
sS'css'
p211
S'text/css'
p212
sS'sis'
p213
S'application/vnd.symbian.install'
p214
sS'snd'
p215
S'audio/basic'
p216
sS'mpega'
p217
g8
sS'fb'
p218
g114
sS'mesh'
p219
g134
sS'divx'
p220
g61
sS'fm'
p221
g114
sS'man'
p222
S'application/x-troff-man'
p223
sS'lha'
p224
S'application/x-lha'
p225
sS'gcf'
p226
S'application/x-graphing-calculator'
p227
sS'sw'
p228
S'chemical/x-swissprot'
p229
sS'sh'
p230
S'text/x-sh'
p231
sS'lhs'
p232
S'text/x-literate-haskell'
p233
sS'sd'
p234
S'chemical/x-mdl-sdfile'
p235
sS'lsf'
p236
S'video/x-la-asf'
p237
sS'vmd'
p238
S'chemical/x-vmd'
p239
sS'jpeg'
p240
S'image/jpeg'
p241
sS'jng'
p242
S'image/x-jng'
p243
sS'vms'
p244
S'chemical/x-vamas-iso14976'
p245
sS'lsx'
p246
g237
sS'pcx'
p247
S'image/pcx'
p248
sS'djv'
p249
S'image/vnd.djvu'
p250
sS'wrl'
p251
S'x-world/x-vrml'
p252
sS'qgs'
p253
S'application/x-qgis'
p254
sS'html'
p255
g71
sS'fig'
p256
S'application/x-xfig'
p257
sS'tsv'
p258
S'text/tab-separated-values'
p259
sS'pcf'
p260
g140
sS'tsp'
p261
S'application/dsptype'
p262
sS'cls'
p263
g77
sS'lzx'
p264
S'application/x-lzx'
p265
sS'mxu'
p266
S'video/vnd.mpegurl'
p267
sS'dat'
p268
S'application/x-ns-proxy-autoconfig'
p269
sS'lzh'
p270
S'application/x-lzh'
p271
sS'cer'
p272
S'chemical/x-cerius'
p273
sS'hqx'
p274
S'application/mac-binhex40'
p275
sS'kpr'
p276
S'application/x-kpresenter'
p277
sS'kpt'
p278
g277
sS'xlb'
p279
S'application/vnd.ms-excel'
p280
sS'h'
p281
S'text/x-chdr'
p282
sS'xlt'
p283
g280
sS'xls'
p284
g280
sS'atomcat'
p285
S'application/atomcat+xml'
p286
sS'mdb'
p287
S'application/msaccess'
p288
sS'gtar'
p289
g184
sS'ez'
p290
S'application/andrew-inset'
p291
sS'es'
p292
S'application/ecmascript'
p293
sS'vcd'
p294
S'application/x-cdlink'
p295
sS'vcf'
p296
S'text/x-vcard'
p297
sS'rd'
p298
S'chemical/x-mdl-rdfile'
p299
sS'vcs'
p300
S'text/x-vcalendar'
p301
sS'ra'
p302
S'audio/x-realaudio'
p303
sS'rb'
p304
S'application/x-ruby'
p305
sS'rm'
p306
S'audio/x-pn-realaudio'
p307
sS'asx'
p308
S'video/x-ms-asf'
p309
sS'gnumeric'
p310
S'application/x-gnumeric'
p311
sS'mml'
p312
S'text/mathml'
p313
sS'asf'
p314
g309
sS'mmd'
p315
S'chemical/x-macromodel-input'
p316
sS'mmf'
p317
S'application/vnd.smaf'
p318
sS'aso'
p319
S'chemical/x-ncbi-asn1-binary'
p320
sS'asn'
p321
S'chemical/x-ncbi-asn1-spec'
p322
sS'cxx'
p323
S'text/x-c++src'
p324
sS'xpm'
p325
S'image/x-xpixmap'
p326
sS'midi'
p327
S'audio/midi'
p328
sS'c3d'
p329
S'chemical/x-chem3d'
p330
sS'isp'
p331
S'application/x-internet-signup'
p332
sS'swfl'
p333
S'application/x-shockwave-flash'
p334
sS'ist'
p335
S'chemical/x-isostar'
p336
sS'mvb'
p337
S'chemical/x-mopac-vib'
p338
sS'iso'
p339
S'application/x-iso9660-image'
p340
sS'xul'
p341
S'application/vnd.mozilla.xul+xml'
p342
sS'pgn'
p343
S'application/x-chess-pgn'
p344
sS'pgm'
p345
S'image/x-portable-graymap'
p346
sS'pgp'
p347
S'application/pgp-signature'
p348
sS'mkv'
p349
S'video/mkv'
p350
sS'gpt'
p351
S'chemical/x-mopac-graph'
p352
sS'phtml'
p353
S'application/x-httpd-php'
p354
sS'ods'
p355
S'application/vnd.oasis.opendocument.spreadsheet'
p356
sS'ogx'
p357
S'application/ogg'
p358
sS'wax'
p359
S'audio/x-ms-wax'
p360
sS'ogm'
p361
S'video/ogg'
p362
sS'pnm'
p363
S'image/x-portable-anymap'
p364
sS'cmdf'
p365
S'chemical/x-cmdf'
p366
sS'oga'
p367
g176
sS'png'
p368
S'image/png'
p369
sS'rss'
p370
S'application/rss+xml'
p371
sS'std'
p372
S'application/vnd.sun.xml.draw.template'
p373
sS'b'
p374
S'chemical/x-molconn-Z'
p375
sS'stc'
p376
S'application/vnd.sun.xml.calc.template'
p377
sS'stl'
p378
S'application/vnd.ms-pki.stl'
p379
sS'ogg'
p380
g176
sS'mcif'
p381
S'chemical/x-mmcif'
p382
sS'stw'
p383
S'application/vnd.sun.xml.writer.template'
p384
sS'torrent'
p385
S'application/x-bittorrent'
p386
sS'prf'
p387
S'application/pics-rules'
p388
sS'php3p'
p389
S'application/x-httpd-php3-preprocessed'
p390
sS'ram'
p391
g307
sS'prt'
p392
S'chemical/x-ncbi-asn1-ascii'
p393
sS'rar'
p394
S'application/rar'
p395
sS'ras'
p396
S'image/x-cmu-raster'
p397
sS'anx'
p398
S'application/annodex'
p399
sS'7z'
p400
S'application/x-7z-compressed'
p401
sS'shtml'
p402
g71
sS'lin'
p403
S'application/bbolin'
p404
sS'mid'
p405
g328
sS'mif'
p406
S'application/x-mif'
p407
sS'323'
p408
S'text/h323'
p409
sS'istr'
p410
g336
sS'csml'
p411
g191
sS'ogv'
p412
g362
sS'zmt'
p413
S'chemical/x-mopac-input'
p414
sS'kar'
p415
g328
sS'mpeg'
p416
g40
sS'sisx'
p417
S'x-epoc/x-sisx-app'
p418
sS'pyo'
p419
S'application/x-python-code'
p420
sS'fch'
p421
g36
sS'pyc'
p422
g420
sS'awb'
p423
S'audio/amr-wb'
p424
sS'cc'
p425
g324
sS'fbdoc'
p426
g114
sS'latex'
p427
S'application/x-latex'
p428
sS'exe'
p429
S'application/x-msdos-program'
p430
sS'axv'
p431
S'video/annodex'
p432
sS'doc'
p433
S'application/msword'
p434
sS'wmlsc'
p435
S'application/vnd.wap.wmlscriptc'
p436
sS'hh'
p437
S'text/x-c++hdr'
p438
sS'axa'
p439
S'audio/annodex'
p440
sS'dot'
p441
g434
sS'cdf'
p442
S'application/x-cdf'
p443
sS'rtf'
p444
S'application/rtf'
p445
sS'ctab'
p446
g42
sS'cda'
p447
g443
sS'text'
p448
g101
sS'sdc'
p449
S'application/vnd.stardivision.calc'
p450
sS'cdt'
p451
S'image/x-coreldrawtemplate'
p452
sS'texi'
p453
S'application/x-texinfo'
p454
sS'cdr'
p455
S'image/x-coreldraw'
p456
sS'cdx'
p457
S'chemical/x-cdx'
p458
sS'cdy'
p459
S'application/vnd.cinderella'
p460
sS'xml'
p461
S'application/xml'
p462
sS'ksp'
p463
S'application/x-kspread'
p464
sS'cache'
p465
g168
sS'jar'
p466
S'application/java-archive'
p467
sS'jam'
p468
S'application/x-jam'
p469
sS'jad'
p470
S'text/vnd.sun.j2me.app-descriptor'
p471
sS'ief'
p472
S'image/ief'
p473
sS'dl'
p474
S'video/dl'
p475
sS'cpio'
p476
S'application/x-cpio'
p477
sS'dx'
p478
g162
sS'dv'
p479
g55
sS'gen'
p480
S'chemical/x-genbank'
p481
sS'hin'
p482
S'chemical/x-hin'
p483
sS'silo'
p484
g134
sS'shp'
p485
g254
sS'bat'
p486
g430
sS'qt'
p487
S'video/quicktime'
p488
sS'crt'
p489
S'application/x-x509-ca-cert'
p490
sS'emb'
p491
S'chemical/x-embl-dl-nucleotide'
p492
sS'shx'
p493
g254
sS'eml'
p494
S'message/rfc822'
p495
sS'c++'
p496
g324
sS'patch'
p497
S'text/x-diff'
p498
sS'bak'
p499
g207
sS'crl'
p500
S'application/x-pkcs7-crl'
p501
sS'espi'
p502
g128
sS'art'
p503
S'image/x-jg'
p504
sS'ser'
p505
S'application/java-serialized-object'
p506
sS'frame'
p507
g114
sS'sti'
p508
S'application/vnd.sun.xml.impress.template'
p509
sS'qtl'
p510
S'application/x-quicktimeplayer'
p511
sS'movie'
p512
S'video/x-sgi-movie'
p513
sS'dll'
p514
g430
sS'wm'
p515
S'video/x-ms-wm'
p516
sS'wk'
p517
S'application/x-123'
p518
sS'js'
p519
S'application/javascript'
p520
sS'key'
p521
S'application/pgp-keys'
p522
sS'sv4crc'
p523
S'application/x-sv4crc'
p524
sS'pcap'
p525
g156
sS'wz'
p526
S'application/x-wingz'
p527
sS'vrm'
p528
g252
sS'c'
p529
S'text/x-csrc'
p530
sS'etx'
p531
S'text/x-setext'
p532
sS'sty'
p533
g77
sS'cod'
p534
S'application/vnd.rim.cod'
p535
sS'pdf'
p536
S'application/pdf'
p537
sS'com'
p538
g430
sS'pdb'
p539
g203
sS'xspf'
p540
S'application/xspf+xml'
p541
sS'roff'
p542
g25
sS'tgz'
p543
g184
sS'pot'
p544
g101
sS'tgf'
p545
S'chemical/x-mdl-tgf'
p546
sS'kwt'
p547
S'application/x-kword'
p548
sS'cxf'
p549
S'chemical/x-cxf'
p550
sS'sxd'
p551
S'application/vnd.sun.xml.draw'
p552
sS'rpm'
p553
S'application/x-redhat-package-manager'
p554
sS'cu'
p555
S'application/cu-seeme'
p556
sS'jnlp'
p557
S'application/x-java-jnlp-file'
p558
sS'ps'
p559
g128
sS'mpga'
p560
g8
sS'iges'
p561
S'model/iges'
p562
sS'py'
p563
S'text/x-python'
p564
sS'frm'
p565
g114
sS'swf'
p566
g334
sS'pk'
p567
S'application/x-tex-pk'
p568
sS'pl'
p569
S'text/x-perl'
p570
sS'pm'
p571
g570
sS'oth'
p572
S'application/vnd.oasis.opendocument.text-web'
p573
sS'mcm'
p574
S'chemical/x-macmolecule'
p575
sS'lyx'
p576
S'application/x-lyx'
p577
sS'gau'
p578
S'chemical/x-gaussian-input'
p579
sS'otg'
p580
S'application/vnd.oasis.opendocument.graphics-template'
p581
sS'gam'
p582
S'chemical/x-gamess-input'
p583
sS'gal'
p584
S'chemical/x-gaussian-log'
p585
sS'otp'
p586
S'application/vnd.oasis.opendocument.presentation-template'
p587
sS'ots'
p588
S'application/vnd.oasis.opendocument.spreadsheet-template'
p589
sS'ott'
p590
S'application/vnd.oasis.opendocument.text-template'
p591
sS'mopcrt'
p592
g414
sS'hdf'
p593
S'application/x-hdf'
p594
sS'atomsrv'
p595
S'application/atomserv+xml'
p596
sS'aif'
p597
S'audio/x-aiff'
p598
sS'~'
p599
g207
sS'svgz'
p600
S'image/svg+xml'
p601
sS'cef'
p602
g550
sS'wp5'
p603
S'application/vnd.wordperfect5.1'
p604
sS'jpe'
p605
g241
sS'jpg'
p606
g241
sS'sitx'
p607
g199
sS'avi'
p608
S'video/x-msvideo'
p609
sS'texinfo'
p610
g454
sS'shar'
p611
S'application/x-shar'
p612
sS'pas'
p613
g57
sS'pat'
p614
S'image/x-coreldrawpattern'
p615
sS'pac'
p616
g269
sS'hxx'
p617
g438
sS'3gp'
p618
S'video/3gpp'
p619
sS'kin'
p620
S'chemical/x-kinemage'
p621
sS'kil'
p622
S'application/x-killustrator'
p623
sS'wpd'
p624
S'application/vnd.wordperfect'
p625
sS'igs'
p626
g562
sS'php'
p627
g354
sS'pht'
p628
g354
sS'gamin'
p629
g583
sS'wmls'
p630
S'text/vnd.wap.wmlscript'
p631
sS'eps'
p632
g128
sS'gsf'
p633
g140
sS'wmlc'
p634
S'application/vnd.wap.wmlc'
p635
sS'gsm'
p636
S'audio/x-gsm'
p637
sS'hpp'
p638
g438
sS'aiff'
p639
g598
sS'davmount'
p640
S'application/davmount+xml'
p641
sS'aifc'
p642
g598
sS'tcl'
p643
g30
sS'bcpio'
p644
S'application/x-bcpio'
p645
sS'kwd'
p646
g548
sS'skt'
p647
S'application/x-koan'
p648
sS'skp'
p649
g648
sS'skd'
p650
g648
sS'rgb'
p651
S'image/x-rgb'
p652
sS'cub'
p653
S'chemical/x-gaussian-cube'
p654
sS'skm'
p655
g648
sS'm4a'
p656
g8
sS'bin'
p657
S'application/octet-stream'
p658
sS'embl'
p659
g492
sS'mop'
p660
g414
sS'bib'
p661
S'text/x-bibtex'
p662
sS'mov'
p663
g488
sS'psd'
p664
S'image/x-photoshop'
p665
sS'moo'
p666
S'chemical/x-mopac-out'
p667
sS'mol'
p668
S'chemical/x-mdl-molfile'
p669
sS'moc'
p670
S'text/x-moc'
p671
sS'amr'
p672
S'audio/amr'
p673
sS'ustar'
p674
S'application/x-ustar'
p675
sS'd'
p676
S'text/x-dsrc'
p677
sS't'
p678
g25
sS'xsd'
p679
g462
sS'gjf'
p680
g579
sS'vrml'
p681
g252
sS'gjc'
p682
g579
sS'xsl'
p683
g462
sS'old'
p684
g207
sS'vsd'
p685
S'application/vnd.visio'
p686
sS'diff'
p687
g498
sS'udeb'
p688
g172
sS'ico'
p689
S'image/x-icon'
p690
sS'scala'
p691
S'text/x-scala'
p692
sS'ica'
p693
S'application/x-ica'
p694
sS'kml'
p695
S'application/vnd.google-earth.kml+xml'
p696
sS'ice'
p697
S'x-conference/x-cooltalk'
p698
sS'icz'
p699
S'text/calendar'
p700
sS'ics'
p701
g700
sS'xtel'
p702
S'chemical/x-xtel'
p703
sS'kmz'
p704
S'application/vnd.google-earth.kmz'
p705
sS'pls'
p706
S'audio/x-scpls'
p707
sS'mmod'
p708
g316
sS'java'
p709
S'text/x-java'
p710
sS'dcr'
p711
g63
sS'src'
p712
S'application/x-wais-source'
p713
sS'o'
p714
S'application/x-object'
p715
sS'sd2'
p716
S'audio/x-sd2'
p717
sS'tiff'
p718
S'image/tiff'
p719
sS'xyz'
p720
S'chemical/x-xyz'
p721
sS'ppm'
p722
S'image/x-portable-pixmap'
p723
sS'pps'
p724
S'application/vnd.ms-powerpoint'
p725
sS'bsd'
p726
S'chemical/x-crossfire'
p727
sS'ppt'
p728
g725
sS'djvu'
p729
g250
sS'xpi'
p730
S'application/x-xpinstall'
p731
sS'val'
p732
g320
sS'wad'
p733
S'application/x-doom'
p734
sS'class'
p735
S'application/java-vm'
p736
sS'gif'
p737
S'image/gif'
p738
sS'smil'
p739
g45
sS'wav'
p740
S'audio/x-wav'
p741
sS'rhtml'
p742
S'application/x-httpd-eruby'
p743
sS'sdw'
p744
S'application/vnd.stardivision.writer'
p745
sS'sds'
p746
S'application/vnd.stardivision.chart'
p747
sS'hs'
p748
S'text/x-haskell'
p749
sS'sdd'
p750
S'application/vnd.stardivision.impress'
p751
sS'sdf'
p752
g235
sS'sda'
p753
S'application/vnd.stardivision.draw'
p754
sS'atom'
p755
S'application/atom+xml'
p756
sS'sv4cpio'
p757
S'application/x-sv4cpio'
p758
sS'info'
p759
S'application/x-info'
p760
sS'cif'
p761
S'chemical/x-cif'
p762
sS'dmg'
p763
S'application/x-apple-diskimage'
p764
sS'dms'
p765
S'application/x-dms'
p766
sS'svg'
p767
g601
sS'xwd'
p768
S'image/x-xwindowdump'
p769
sS'pfa'
p770
g140
sS'sxc'
p771
S'application/vnd.sun.xml.calc'
p772
sS'p7r'
p773
S'application/x-pkcs7-certreqresp'
p774
sS'sxg'
p775
S'application/vnd.sun.xml.writer.global'
p776
sS'ai'
p777
g128
sS'sxi'
p778
S'application/vnd.sun.xml.impress'
p779
sS'inp'
p780
g583
sS'sxm'
p781
S'application/vnd.sun.xml.math'
p782
sS'ins'
p783
g332
sS'cbr'
p784
S'application/x-cbr'
p785
sS'au'
p786
g216
sS'sxw'
p787
S'application/vnd.sun.xml.writer'
p788
sS'cbz'
p789
S'application/x-cbz'
p790
sS'%'
p791
g207
sS'nb'
p792
g73
sS'nc'
p793
S'application/x-netcdf'
p794
sS'book'
p795
g114
sS'php4'
p796
S'application/x-httpd-php4'
p797
sS'tif'
p798
g719
sS'php3'
p799
S'application/x-httpd-php3'
p800
sS'mol2'
p801
S'chemical/x-mol2'
p802
sS'h++'
p803
g438
sS'dvi'
p804
S'application/x-dvi'
p805
sS'pcf.Z'
p806
g140
sS'rxn'
p807
S'chemical/x-mdl-rxnfile'
p808
sS'cpa'
p809
S'chemical/x-compass'
p810
sS'bmp'
p811
S'image/x-ms-bmp'
p812
sS'xbm'
p813
S'image/x-xbitmap'
p814
sS'cpp'
p815
g324
sS'cpt'
p816
S'image/x-corelphotopaint'
p817
sS'phps'
p818
S'application/x-httpd-php-source'
p819
s.